; ModuleID = '21/1867.c'
source_filename = "21/1867.c"
target datalayout = "e-m:e-p270:32:32-p271:32:32-p272:64:64-i64:64-f80:128-n8:16:32:64-S128"
target triple = "x86_64-pc-linux-gnu"

@.str = private unnamed_addr constant [3 x i8] c"%d\00", align 1
@.str.1 = private unnamed_addr constant [4 x i8] c",%d\00", align 1

; Function Attrs: noinline nounwind uwtable
define dso_local void @main() #0 {
  %1 = alloca i32, align 4
  %2 = alloca i32, align 4
  %3 = alloca i32, align 4
  %4 = alloca [3 x i32], align 4
  %5 = alloca [300 x i32], align 16
  %6 = alloca i32, align 4
  %7 = alloca float, align 4
  %8 = alloca float, align 4
  %9 = alloca float, align 4
  store i32 0, i32* %3, align 4
  store i32 0, i32* %6, align 4
  store float 0.000000e+00, float* %9, align 4
  %10 = call i32 (i8*, ...) @__isoc99_scanf(i8* getelementptr inbounds ([3 x i8], [3 x i8]* @.str, i64 0, i64 0), i32* %1)
  store i32 1, i32* %2, align 4
  br label %11

11:                                               ; preds = %26, %0
  %12 = load i32, i32* %2, align 4
  %13 = load i32, i32* %1, align 4
  %14 = icmp sle i32 %12, %13
  br i1 %14, label %15, label %29

15:                                               ; preds = %11
  %16 = load i32, i32* %2, align 4
  %17 = sext i32 %16 to i64
  %18 = getelementptr inbounds [300 x i32], [300 x i32]* %5, i64 0, i64 %17
  %19 = call i32 (i8*, ...) @__isoc99_scanf(i8* getelementptr inbounds ([3 x i8], [3 x i8]* @.str, i64 0, i64 0), i32* %18)
  %20 = load i32, i32* %6, align 4
  %21 = load i32, i32* %2, align 4
  %22 = sext i32 %21 to i64
  %23 = getelementptr inbounds [300 x i32], [300 x i32]* %5, i64 0, i64 %22
  %24 = load i32, i32* %23, align 4
  %25 = add nsw i32 %20, %24
  store i32 %25, i32* %6, align 4
  br label %26

26:                                               ; preds = %15
  %27 = load i32, i32* %2, align 4
  %28 = add nsw i32 %27, 1
  store i32 %28, i32* %2, align 4
  br label %11

29:                                               ; preds = %11
  %30 = load i32, i32* %6, align 4
  %31 = sitofp i32 %30 to float
  %32 = load i32, i32* %1, align 4
  %33 = sitofp i32 %32 to float
  %34 = fdiv float %31, %33
  store float %34, float* %7, align 4
  store i32 1, i32* %2, align 4
  br label %35

35:                                               ; preds = %83, %29
  %36 = load i32, i32* %2, align 4
  %37 = load i32, i32* %1, align 4
  %38 = icmp sle i32 %36, %37
  br i1 %38, label %39, label %86

39:                                               ; preds = %35
  %40 = load i32, i32* %2, align 4
  %41 = sext i32 %40 to i64
  %42 = getelementptr inbounds [300 x i32], [300 x i32]* %5, i64 0, i64 %41
  %43 = load i32, i32* %42, align 4
  %44 = sitofp i32 %43 to float
  %45 = load float, float* %7, align 4
  %46 = fsub float %44, %45
  store float %46, float* %8, align 4
  %47 = load float, float* %8, align 4
  %48 = fcmp olt float %47, 0.000000e+00
  br i1 %48, label %49, label %52

49:                                               ; preds = %39
  %50 = load float, float* %8, align 4
  %51 = fsub float 0.000000e+00, %50
  store float %51, float* %8, align 4
  br label %52

52:                                               ; preds = %49, %39
  %53 = load float, float* %8, align 4
  %54 = load float, float* %9, align 4
  %55 = fcmp ogt float %53, %54
  br i1 %55, label %56, label %65

56:                                               ; preds = %52
  %57 = load float, float* %8, align 4
  store float %57, float* %9, align 4
  %58 = load i32, i32* %2, align 4
  %59 = sext i32 %58 to i64
  %60 = getelementptr inbounds [300 x i32], [300 x i32]* %5, i64 0, i64 %59
  %61 = load i32, i32* %60, align 4
  %62 = getelementptr inbounds [3 x i32], [3 x i32]* %4, i64 0, i64 0
  store i32 %61, i32* %62, align 4
  %63 = getelementptr inbounds [3 x i32], [3 x i32]* %4, i64 0, i64 1
  store i32 0, i32* %63, align 4
  %64 = getelementptr inbounds [3 x i32], [3 x i32]* %4, i64 0, i64 2
  store i32 0, i32* %64, align 4
  store i32 1, i32* %3, align 4
  br label %82

65:                                               ; preds = %52
  %66 = load float, float* %8, align 4
  %67 = load float, float* %9, align 4
  %68 = fcmp oeq float %66, %67
  br i1 %68, label %69, label %79

69:                                               ; preds = %65
  %70 = load i32, i32* %2, align 4
  %71 = sext i32 %70 to i64
  %72 = getelementptr inbounds [300 x i32], [300 x i32]* %5, i64 0, i64 %71
  %73 = load i32, i32* %72, align 4
  %74 = load i32, i32* %3, align 4
  %75 = sext i32 %74 to i64
  %76 = getelementptr inbounds [3 x i32], [3 x i32]* %4, i64 0, i64 %75
  store i32 %73, i32* %76, align 4
  %77 = load i32, i32* %3, align 4
  %78 = add nsw i32 %77, 1
  store i32 %78, i32* %3, align 4
  br label %81

79:                                               ; preds = %65
  %80 = load i32, i32* %3, align 4
  store i32 %80, i32* %3, align 4
  br label %81

81:                                               ; preds = %79, %69
  br label %82

82:                                               ; preds = %81, %56
  br label %83

83:                                               ; preds = %82
  %84 = load i32, i32* %2, align 4
  %85 = add nsw i32 %84, 1
  store i32 %85, i32* %2, align 4
  br label %35

86:                                               ; preds = %35
  %87 = getelementptr inbounds [3 x i32], [3 x i32]* %4, i64 0, i64 0
  %88 = load i32, i32* %87, align 4
  %89 = call i32 (i8*, ...) @printf(i8* getelementptr inbounds ([3 x i8], [3 x i8]* @.str, i64 0, i64 0), i32 %88)
  %90 = getelementptr inbounds [3 x i32], [3 x i32]* %4, i64 0, i64 1
  %91 = load i32, i32* %90, align 4
  %92 = icmp ne i32 %91, 0
  br i1 %92, label %93, label %97

93:                                               ; preds = %86
  %94 = getelementptr inbounds [3 x i32], [3 x i32]* %4, i64 0, i64 1
  %95 = load i32, i32* %94, align 4
  %96 = call i32 (i8*, ...) @printf(i8* getelementptr inbounds ([4 x i8], [4 x i8]* @.str.1, i64 0, i64 0), i32 %95)
  br label %97

97:                                               ; preds = %93, %86
  ret void
}

declare dso_local i32 @__isoc99_scanf(i8*, ...) #1

declare dso_local i32 @printf(i8*, ...) #1


!llvm.module.flags = !{!0}
!llvm.ident = !{!1}

!0 = !{i32 1, !"wchar_size", i32 4}
!1 = !{!"clang version 10.0.0-4ubuntu1 "}
